target datalayout = "e-m:e-p270:32:32-p271:32:32-p272:64:64-i64:64-i128:128-f80:128-n8:16:32:64-S128"
target triple = "x86_64-pc-linux-gnu"

; Function Attrs: mustprogress uwtable
define i32 @zmq_timers_cancel(ptr noundef %0, i32 noundef %1) #1 {
  %3 = alloca i32, align 4
  %4 = alloca ptr, align 8
  %5 = alloca i32, align 4
  store ptr %0, ptr %4, align 8, !tbaa !12
  store i32 %1, ptr %5, align 4, !tbaa !8
  %6 = load ptr, ptr %4, align 8, !tbaa !12
  %7 = icmp ne ptr %6, null
  br i1 %7, label %8, label %11

8:                                                ; preds = %2
  %9 = load ptr, ptr %4, align 8, !tbaa !12
  %10 = call noundef zeroext i1 @_ZNK3zmq8timers_t9check_tagEv(ptr noundef nonnull align 8 dereferenceable(120) %9)
  br i1 %10, label %13, label %11

11:                                               ; preds = %8, %2
  %12 = call ptr @__errno_location() #19
  store i32 14, ptr %12, align 4, !tbaa !8
  store i32 -1, ptr %3, align 4
  br label %17

13:                                               ; preds = %8
  %14 = load ptr, ptr %4, align 8, !tbaa !12
  %15 = load i32, ptr %5, align 4, !tbaa !8
  %16 = call noundef i32 @_ZN3zmq8timers_t6cancelEi(ptr noundef nonnull align 8 dereferenceable(120) %14, i32 noundef %15)
  store i32 %16, ptr %3, align 4
  br label %17

17:                                               ; preds = %13, %11
  %18 = load i32, ptr %3, align 4
  ret i32 %18
}