; Function Attrs: mustprogress uwtable
define noundef i32 @zmq_timers_cancel(ptr noundef %0, i32 noundef %1) local_unnamed_addr #1 {
  %.not = icmp eq ptr %0, null
  br i1 %.not, label %5, label %3

3:                                                ; preds = %2
  %4 = tail call noundef zeroext i1 @_ZNK3zmq8timers_t9check_tagEv(ptr noundef nonnull align 8 dereferenceable(120) %0)
  br i1 %4, label %7, label %5

5:                                                ; preds = %3, %2
  %6 = tail call ptr @__errno_location() #20
  store i32 14, ptr %6, align 4, !tbaa !3
  br label %9

7:                                                ; preds = %3
  %8 = tail call noundef i32 @_ZN3zmq8timers_t6cancelEi(ptr noundef nonnull align 8 dereferenceable(120) %0, i32 noundef %1)
  br label %9

9:                                                ; preds = %7, %5
  %.0 = phi i32 [ %8, %7 ], [ -1, %5 ]
  ret i32 %.0
}